; Function Attrs: mustprogress nounwind uwtable
define internal void @_ZNK12_GLOBAL__N_116VariadicArgument19writeCtorParametersERN4llvm11raw_ostreamE(ptr noundef nonnull align 8 dereferenceable(224) %0, ptr noundef nonnull align 8 dereferenceable(48) %1) unnamed_addr #0 align 2 {
  %3 = getelementptr inbounds nuw i8, ptr %0, i64 96
  %4 = tail call noundef ptr @_ZNKSt7__cxx1112basic_stringIcSt11char_traitsIcESaIcEE4dataEv(ptr noundef nonnull align 8 dereferenceable(32) %3) #22
  %5 = tail call noundef i64 @_ZNKSt7__cxx1112basic_stringIcSt11char_traitsIcESaIcEE6lengthEv(ptr noundef nonnull align 8 dereferenceable(32) %3) #22
  %6 = tail call noundef nonnull align 8 dereferenceable(48) ptr @_ZN4llvm11raw_ostream5writeEPKcm(ptr noundef nonnull align 8 dereferenceable(48) %1, ptr noundef %4, i64 noundef %5) #22
  %7 = getelementptr inbounds nuw i8, ptr %6, i64 24
  %8 = load ptr, ptr %7, align 8
  %9 = getelementptr inbounds nuw i8, ptr %6, i64 32
  %10 = load ptr, ptr %9, align 8
  %11 = ptrtoint ptr %8 to i64
  %12 = ptrtoint ptr %10 to i64
  %13 = sub i64 %11, %12
  %14 = icmp ult i64 %13, 2
  br i1 %14, label %15, label %17

15:                                               ; preds = %2
  %16 = tail call noundef nonnull align 8 dereferenceable(48) ptr @_ZN4llvm11raw_ostream5writeEPKcm(ptr noundef nonnull align 8 dereferenceable(48) %6, ptr noundef nonnull @.str.817, i64 noundef 2) #22
  br label %_ZN4llvm11raw_ostreamlsEPKc.exit

17:                                               ; preds = %2
  store i16 10784, ptr %10, align 1
  %18 = load ptr, ptr %9, align 8
  %19 = getelementptr inbounds i8, ptr %18, i64 2
  store ptr %19, ptr %9, align 8
  br label %_ZN4llvm11raw_ostreamlsEPKc.exit

_ZN4llvm11raw_ostreamlsEPKc.exit:                 ; preds = %15, %17
  %.0.i.i = phi ptr [ %16, %15 ], [ %6, %17 ]
  %20 = getelementptr inbounds nuw i8, ptr %0, i64 40
  %21 = tail call noundef ptr @_ZNKSt7__cxx1112basic_stringIcSt11char_traitsIcESaIcEE4dataEv(ptr noundef nonnull align 8 dereferenceable(32) %20) #22
  %22 = tail call noundef i64 @_ZNKSt7__cxx1112basic_stringIcSt11char_traitsIcESaIcEE6lengthEv(ptr noundef nonnull align 8 dereferenceable(32) %20) #22
  %23 = getelementptr inbounds nuw i8, ptr %.0.i.i, i64 24
  %24 = load ptr, ptr %23, align 8
  %25 = getelementptr inbounds nuw i8, ptr %.0.i.i, i64 32
  %26 = load ptr, ptr %25, align 8
  %27 = ptrtoint ptr %24 to i64
  %28 = ptrtoint ptr %26 to i64
  %29 = sub i64 %27, %28
  %30 = icmp ugt i64 %22, %29
  br i1 %30, label %31, label %33

31:                                               ; preds = %_ZN4llvm11raw_ostreamlsEPKc.exit
  %32 = tail call noundef nonnull align 8 dereferenceable(48) ptr @_ZN4llvm11raw_ostream5writeEPKcm(ptr noundef nonnull align 8 dereferenceable(48) %.0.i.i, ptr noundef %21, i64 noundef %22) #22
  %.phi.trans.insert = getelementptr inbounds nuw i8, ptr %32, i64 32
  %.pre = load ptr, ptr %.phi.trans.insert, align 8
  br label %_ZN4llvm11raw_ostreamlsENS_9StringRefE.exit

33:                                               ; preds = %_ZN4llvm11raw_ostreamlsEPKc.exit
  %.not.i = icmp eq i64 %22, 0
  br i1 %.not.i, label %_ZN4llvm11raw_ostreamlsENS_9StringRefE.exit, label %34

34:                                               ; preds = %33
  tail call void @llvm.memcpy.p0.p0.i64(ptr align 1 %26, ptr align 1 %21, i64 %22, i1 false)
  %35 = load ptr, ptr %25, align 8
  %36 = getelementptr inbounds i8, ptr %35, i64 %22
  store ptr %36, ptr %25, align 8
  br label %_ZN4llvm11raw_ostreamlsENS_9StringRefE.exit

_ZN4llvm11raw_ostreamlsENS_9StringRefE.exit:      ; preds = %31, %33, %34
  %37 = phi ptr [ %.pre, %31 ], [ %36, %34 ], [ %26, %33 ]
  %.0.i = phi ptr [ %32, %31 ], [ %.0.i.i, %34 ], [ %.0.i.i, %33 ]
  %38 = getelementptr inbounds nuw i8, ptr %.0.i, i64 24
  %39 = load ptr, ptr %38, align 8
  %40 = ptrtoint ptr %39 to i64
  %41 = ptrtoint ptr %37 to i64
  %42 = sub i64 %40, %41
  %43 = icmp ult i64 %42, 11
  br i1 %43, label %44, label %46

44:                                               ; preds = %_ZN4llvm11raw_ostreamlsENS_9StringRefE.exit
  %45 = tail call noundef nonnull align 8 dereferenceable(48) ptr @_ZN4llvm11raw_ostream5writeEPKcm(ptr noundef nonnull align 8 dereferenceable(48) %.0.i, ptr noundef nonnull @.str.818, i64 noundef 11) #22
  br label %_ZN4llvm11raw_ostreamlsEPKc.exit6

46:                                               ; preds = %_ZN4llvm11raw_ostreamlsENS_9StringRefE.exit
  %47 = getelementptr inbounds nuw i8, ptr %.0.i, i64 32
  tail call void @llvm.memcpy.p0.p0.i64(ptr noundef nonnull align 1 dereferenceable(11) %37, ptr noundef nonnull align 1 dereferenceable(11) @.str.818, i64 11, i1 false)
  %48 = load ptr, ptr %47, align 8
  %49 = getelementptr inbounds i8, ptr %48, i64 11
  store ptr %49, ptr %47, align 8
  br label %_ZN4llvm11raw_ostreamlsEPKc.exit6

_ZN4llvm11raw_ostreamlsEPKc.exit6:                ; preds = %44, %46
  %.0.i.i5 = phi ptr [ %45, %44 ], [ %.0.i, %46 ]
  %50 = tail call noundef ptr @_ZNKSt7__cxx1112basic_stringIcSt11char_traitsIcESaIcEE4dataEv(ptr noundef nonnull align 8 dereferenceable(32) %20) #22
  %51 = tail call noundef i64 @_ZNKSt7__cxx1112basic_stringIcSt11char_traitsIcESaIcEE6lengthEv(ptr noundef nonnull align 8 dereferenceable(32) %20) #22
  %52 = getelementptr inbounds nuw i8, ptr %.0.i.i5, i64 24
  %53 = load ptr, ptr %52, align 8
  %54 = getelementptr inbounds nuw i8, ptr %.0.i.i5, i64 32
  %55 = load ptr, ptr %54, align 8
  %56 = ptrtoint ptr %53 to i64
  %57 = ptrtoint ptr %55 to i64
  %58 = sub i64 %56, %57
  %59 = icmp ugt i64 %51, %58
  br i1 %59, label %60, label %62

60:                                               ; preds = %_ZN4llvm11raw_ostreamlsEPKc.exit6
  %61 = tail call noundef nonnull align 8 dereferenceable(48) ptr @_ZN4llvm11raw_ostream5writeEPKcm(ptr noundef nonnull align 8 dereferenceable(48) %.0.i.i5, ptr noundef %50, i64 noundef %51) #22
  %.phi.trans.insert15 = getelementptr inbounds nuw i8, ptr %61, i64 32
  %.pre16 = load ptr, ptr %.phi.trans.insert15, align 8
  br label %_ZN4llvm11raw_ostreamlsENS_9StringRefE.exit11

62:                                               ; preds = %_ZN4llvm11raw_ostreamlsEPKc.exit6
  %.not.i9 = icmp eq i64 %51, 0
  br i1 %.not.i9, label %_ZN4llvm11raw_ostreamlsENS_9StringRefE.exit11, label %63

63:                                               ; preds = %62
  tail call void @llvm.memcpy.p0.p0.i64(ptr align 1 %55, ptr align 1 %50, i64 %51, i1 false)
  %64 = load ptr, ptr %54, align 8
  %65 = getelementptr inbounds i8, ptr %64, i64 %51
  store ptr %65, ptr %54, align 8
  br label %_ZN4llvm11raw_ostreamlsENS_9StringRefE.exit11

_ZN4llvm11raw_ostreamlsENS_9StringRefE.exit11:    ; preds = %60, %62, %63
  %66 = phi ptr [ %.pre16, %60 ], [ %65, %63 ], [ %55, %62 ]
  %.0.i10 = phi ptr [ %61, %60 ], [ %.0.i.i5, %63 ], [ %.0.i.i5, %62 ]
  %67 = getelementptr inbounds nuw i8, ptr %.0.i10, i64 24
  %68 = load ptr, ptr %67, align 8
  %69 = ptrtoint ptr %68 to i64
  %70 = ptrtoint ptr %66 to i64
  %71 = sub i64 %69, %70
  %72 = icmp ult i64 %71, 4
  br i1 %72, label %73, label %75

73:                                               ; preds = %_ZN4llvm11raw_ostreamlsENS_9StringRefE.exit11
  %74 = tail call noundef nonnull align 8 dereferenceable(48) ptr @_ZN4llvm11raw_ostream5writeEPKcm(ptr noundef nonnull align 8 dereferenceable(48) %.0.i10, ptr noundef nonnull @.str.795, i64 noundef 4) #22
  br label %_ZN4llvm11raw_ostreamlsEPKc.exit14

75:                                               ; preds = %_ZN4llvm11raw_ostreamlsENS_9StringRefE.exit11
  %76 = getelementptr inbounds nuw i8, ptr %.0.i10, i64 32
  store i32 1702521171, ptr %66, align 1
  %77 = load ptr, ptr %76, align 8
  %78 = getelementptr inbounds i8, ptr %77, i64 4
  store ptr %78, ptr %76, align 8
  br label %_ZN4llvm11raw_ostreamlsEPKc.exit14

_ZN4llvm11raw_ostreamlsEPKc.exit14:               ; preds = %73, %75
  ret void
}